target datalayout = "e-m:e-p270:32:32-p271:32:32-p272:64:64-i64:64-i128:128-f80:128-n8:16:32:64-S128"
target triple = "x86_64-pc-linux-gnu"

%struct.AVTextFormatContext = type { ptr, ptr, ptr, ptr, ptr, ptr, i32, i32, [12 x i32], [12 x [100 x i32]], [12 x ptr], [12 x %struct.AVBPrint], i32, i32, i32, i32, i32, ptr, i32, ptr, i32 }
%struct.AVBPrint = type { ptr, i32, i32, i32, [1 x i8], [1000 x i8] }

@.str.15 = private unnamed_addr constant [10 x i8] c"%s%s=%ld\0A\00", align 1

; Function Attrs: nounwind uwtable
define internal void @flat_print_int(ptr noundef %0, ptr noundef %1, i64 noundef %2) #1 {
  %4 = alloca ptr, align 8
  %5 = alloca ptr, align 8
  %6 = alloca i64, align 8
  store ptr %0, ptr %4, align 8, !tbaa !4
  store ptr %1, ptr %5, align 8, !tbaa !38
  store i64 %2, ptr %6, align 8, !tbaa !39
  %7 = load ptr, ptr %4, align 8, !tbaa !4
  %8 = load ptr, ptr %4, align 8, !tbaa !4
  %9 = getelementptr inbounds nuw %struct.AVTextFormatContext, ptr %8, i32 0, i32 11
  %10 = load ptr, ptr %4, align 8, !tbaa !4
  %11 = getelementptr inbounds nuw %struct.AVTextFormatContext, ptr %10, i32 0, i32 7
  %12 = load i32, ptr %11, align 4, !tbaa !25
  %13 = sext i32 %12 to i64
  %14 = getelementptr inbounds [12 x %struct.AVBPrint], ptr %9, i64 0, i64 %13
  %15 = getelementptr inbounds nuw %struct.AVBPrint, ptr %14, i32 0, i32 0
  %16 = load ptr, ptr %15, align 8, !tbaa !29
  %17 = load ptr, ptr %5, align 8, !tbaa !38
  %18 = load i64, ptr %6, align 8, !tbaa !39
  call void (ptr, ptr, ...) @writer_printf(ptr noundef %7, ptr noundef @.str.15, ptr noundef %16, ptr noundef %17, i64 noundef %18)
  ret void
}