; Function Attrs: nounwind uwtable
define internal void @flat_print_int(ptr noundef readonly captures(none) %0, ptr noundef %1, i64 noundef %2) #1 {
  %4 = getelementptr inbounds nuw i8, ptr %0, i64 5000
  %5 = getelementptr inbounds nuw i8, ptr %0, i64 52
  %6 = load i32, ptr %5, align 4, !tbaa !20
  %7 = sext i32 %6 to i64
  %8 = getelementptr inbounds [12 x %struct.AVBPrint], ptr %4, i64 0, i64 %7
  %9 = load ptr, ptr %8, align 8, !tbaa !22
  tail call void (ptr, ptr, ...) @writer_printf(ptr noundef %0, ptr noundef nonnull @.str.15, ptr noundef %9, ptr noundef %1, i64 noundef %2)
  ret void
}